target datalayout = "e-m:e-p270:32:32-p271:32:32-p272:64:64-i64:64-i128:128-f80:128-n8:16:32:64-S128"
target triple = "x86_64-pc-linux-gnu"

%struct.global_State = type { ptr, ptr, %struct.GCState, %struct.GCstr, i8, i8, i8, i8, %struct.StrInternState, i32, %struct.GCRef, %struct.SBuf, %union.TValue, %union.TValue, %struct.Node, %union.TValue, %struct.GCupval, i32, i32, ptr, ptr, ptr, i32, i32, %struct.GCRef, %struct.MRef, %struct.MRef, %struct.PRNGState, [39 x %struct.GCRef] }
%struct.GCState = type { i64, i64, i8, i8, i8, i8, i32, %struct.GCRef, %struct.MRef, %struct.GCRef, %struct.GCRef, %struct.GCRef, %struct.GCRef, i64, i64, i32, i32, %struct.MRef }
%struct.GCstr = type { %struct.GCRef, i8, i8, i8, i8, i32, i32, i32 }
%struct.StrInternState = type { ptr, i32, i32, i32, i8, i8, i8, i8, i64 }
%struct.SBuf = type { ptr, ptr, ptr, %struct.MRef }
%struct.Node = type { %union.TValue, %union.TValue, %struct.MRef }
%union.TValue = type { i64 }
%struct.GCupval = type { %struct.GCRef, i8, i8, i8, i8, %union.anon, %struct.MRef, i32 }
%union.anon = type { %struct.anon.1 }
%struct.anon.1 = type { %struct.GCRef, %struct.GCRef }
%struct.GCRef = type { i64 }
%struct.MRef = type { i64 }
%struct.PRNGState = type { [4 x i64] }
%struct.lua_State = type { %struct.GCRef, i8, i8, i8, i8, %struct.MRef, %struct.GCRef, ptr, ptr, %struct.MRef, %struct.MRef, %struct.GCRef, %struct.GCRef, ptr, i32 }
%struct.GChead = type { %struct.GCRef, i8, i8, i8, i8, %struct.GCRef, %struct.GCRef, %struct.GCRef }
%struct.GCudata = type { %struct.GCRef, i8, i8, i8, i8, %struct.GCRef, i32, %struct.GCRef, i32 }
%struct.GCtab = type { %struct.GCRef, i8, i8, i8, i8, %struct.MRef, %struct.GCRef, %struct.GCRef, %struct.MRef, i32, i32, %struct.MRef }

; Function Attrs: nounwind uwtable
define hidden i64 @lj_gc_separateudata(ptr noundef %0, i32 noundef %1) #0 {
  %3 = alloca ptr, align 8
  %4 = alloca i32, align 4
  %5 = alloca i64, align 8
  %6 = alloca ptr, align 8
  %7 = alloca ptr, align 8
  %8 = alloca ptr, align 8
  store ptr %0, ptr %3, align 8, !tbaa !4
  store i32 %1, ptr %4, align 4, !tbaa !9
  call void @llvm.lifetime.start.p0(i64 8, ptr %5) #7
  store i64 0, ptr %5, align 8, !tbaa !11
  call void @llvm.lifetime.start.p0(i64 8, ptr %6) #7
  %9 = load ptr, ptr %3, align 8, !tbaa !4
  %10 = getelementptr inbounds nuw %struct.global_State, ptr %9, i32 0, i32 10
  %11 = getelementptr inbounds nuw %struct.GCRef, ptr %10, i32 0, i32 0
  %12 = load i64, ptr %11, align 8, !tbaa !13
  %13 = inttoptr i64 %12 to ptr
  %14 = getelementptr inbounds nuw %struct.lua_State, ptr %13, i32 0, i32 0
  store ptr %14, ptr %6, align 8, !tbaa !26
  call void @llvm.lifetime.start.p0(i64 8, ptr %7) #7
  br label %15

15:                                               ; preds = %147, %2
  %16 = load ptr, ptr %6, align 8, !tbaa !26
  %17 = getelementptr inbounds nuw %struct.GCRef, ptr %16, i32 0, i32 0
  %18 = load i64, ptr %17, align 8, !tbaa !27
  %19 = inttoptr i64 %18 to ptr
  store ptr %19, ptr %7, align 8, !tbaa !28
  %20 = icmp ne ptr %19, null
  br i1 %20, label %21, label %148

21:                                               ; preds = %15
  %22 = load ptr, ptr %7, align 8, !tbaa !28
  %23 = getelementptr inbounds nuw %struct.GChead, ptr %22, i32 0, i32 1
  %24 = load i8, ptr %23, align 8, !tbaa !30
  %25 = zext i8 %24 to i32
  %26 = and i32 %25, 3
  %27 = icmp ne i32 %26, 0
  br i1 %27, label %31, label %28

28:                                               ; preds = %21
  %29 = load i32, ptr %4, align 4, !tbaa !9
  %30 = icmp ne i32 %29, 0
  br i1 %30, label %31, label %38

31:                                               ; preds = %28, %21
  %32 = load ptr, ptr %7, align 8, !tbaa !28
  %33 = getelementptr inbounds nuw %struct.GCudata, ptr %32, i32 0, i32 1
  %34 = load i8, ptr %33, align 8, !tbaa !30
  %35 = zext i8 %34 to i32
  %36 = and i32 %35, 8
  %37 = icmp ne i32 %36, 0
  br i1 %37, label %38, label %41

38:                                               ; preds = %31, %28
  %39 = load ptr, ptr %7, align 8, !tbaa !28
  %40 = getelementptr inbounds nuw %struct.GChead, ptr %39, i32 0, i32 0
  store ptr %40, ptr %6, align 8, !tbaa !26
  br label %147

41:                                               ; preds = %31
  %42 = load ptr, ptr %7, align 8, !tbaa !28
  %43 = getelementptr inbounds nuw %struct.GCudata, ptr %42, i32 0, i32 7
  %44 = getelementptr inbounds nuw %struct.GCRef, ptr %43, i32 0, i32 0
  %45 = load i64, ptr %44, align 8, !tbaa !30
  %46 = inttoptr i64 %45 to ptr
  %47 = icmp eq ptr %46, null
  br i1 %47, label %48, label %49

48:                                               ; preds = %41
  br i1 false, label %84, label %75

49:                                               ; preds = %41
  %50 = load ptr, ptr %7, align 8, !tbaa !28
  %51 = getelementptr inbounds nuw %struct.GCudata, ptr %50, i32 0, i32 7
  %52 = getelementptr inbounds nuw %struct.GCRef, ptr %51, i32 0, i32 0
  %53 = load i64, ptr %52, align 8, !tbaa !30
  %54 = inttoptr i64 %53 to ptr
  %55 = getelementptr inbounds nuw %struct.GCtab, ptr %54, i32 0, i32 3
  %56 = load i8, ptr %55, align 2, !tbaa !31
  %57 = zext i8 %56 to i32
  %58 = and i32 %57, 4
  %59 = icmp ne i32 %58, 0
  br i1 %59, label %60, label %61

60:                                               ; preds = %49
  br i1 false, label %84, label %75

61:                                               ; preds = %49
  %62 = load ptr, ptr %7, align 8, !tbaa !28
  %63 = getelementptr inbounds nuw %struct.GCudata, ptr %62, i32 0, i32 7
  %64 = getelementptr inbounds nuw %struct.GCRef, ptr %63, i32 0, i32 0
  %65 = load i64, ptr %64, align 8, !tbaa !30
  %66 = inttoptr i64 %65 to ptr
  %67 = load ptr, ptr %3, align 8, !tbaa !4
  %68 = getelementptr inbounds nuw %struct.global_State, ptr %67, i32 0, i32 28
  %69 = getelementptr inbounds [39 x %struct.GCRef], ptr %68, i64 0, i64 2
  %70 = getelementptr inbounds nuw %struct.GCRef, ptr %69, i32 0, i32 0
  %71 = load i64, ptr %70, align 8, !tbaa !27
  %72 = inttoptr i64 %71 to ptr
  %73 = call ptr @lj_meta_cache(ptr noundef %66, i32 noundef 2, ptr noundef %72)
  %74 = icmp ne ptr %73, null
  br i1 %74, label %84, label %75

75:                                               ; preds = %61, %60, %48
  %76 = load ptr, ptr %7, align 8, !tbaa !28
  %77 = getelementptr inbounds nuw %struct.GChead, ptr %76, i32 0, i32 1
  %78 = load i8, ptr %77, align 8, !tbaa !30
  %79 = zext i8 %78 to i32
  %80 = or i32 %79, 8
  %81 = trunc i32 %80 to i8
  store i8 %81, ptr %77, align 8, !tbaa !30
  %82 = load ptr, ptr %7, align 8, !tbaa !28
  %83 = getelementptr inbounds nuw %struct.GChead, ptr %82, i32 0, i32 0
  store ptr %83, ptr %6, align 8, !tbaa !26
  br label %146

84:                                               ; preds = %61, %60, %48
  %85 = load ptr, ptr %7, align 8, !tbaa !28
  %86 = getelementptr inbounds nuw %struct.GCudata, ptr %85, i32 0, i32 6
  %87 = load i32, ptr %86, align 8, !tbaa !30
  %88 = zext i32 %87 to i64
  %89 = add i64 48, %88
  %90 = load i64, ptr %5, align 8, !tbaa !11
  %91 = add i64 %90, %89
  store i64 %91, ptr %5, align 8, !tbaa !11
  %92 = load ptr, ptr %7, align 8, !tbaa !28
  %93 = getelementptr inbounds nuw %struct.GChead, ptr %92, i32 0, i32 1
  %94 = load i8, ptr %93, align 8, !tbaa !30
  %95 = zext i8 %94 to i32
  %96 = or i32 %95, 8
  %97 = trunc i32 %96 to i8
  store i8 %97, ptr %93, align 8, !tbaa !30
  %98 = load ptr, ptr %6, align 8, !tbaa !26
  %99 = load ptr, ptr %7, align 8, !tbaa !28
  %100 = getelementptr inbounds nuw %struct.GChead, ptr %99, i32 0, i32 0
  call void @llvm.memcpy.p0.p0.i64(ptr align 8 %98, ptr align 8 %100, i64 8, i1 false), !tbaa.struct !33
  %101 = load ptr, ptr %3, align 8, !tbaa !4
  %102 = getelementptr inbounds nuw %struct.global_State, ptr %101, i32 0, i32 2
  %103 = getelementptr inbounds nuw %struct.GCState, ptr %102, i32 0, i32 12
  %104 = getelementptr inbounds nuw %struct.GCRef, ptr %103, i32 0, i32 0
  %105 = load i64, ptr %104, align 8, !tbaa !34
  %106 = inttoptr i64 %105 to ptr
  %107 = icmp ne ptr %106, null
  br i1 %107, label %108, label %133

108:                                              ; preds = %84
  call void @llvm.lifetime.start.p0(i64 8, ptr %8) #7
  %109 = load ptr, ptr %3, align 8, !tbaa !4
  %110 = getelementptr inbounds nuw %struct.global_State, ptr %109, i32 0, i32 2
  %111 = getelementptr inbounds nuw %struct.GCState, ptr %110, i32 0, i32 12
  %112 = getelementptr inbounds nuw %struct.GCRef, ptr %111, i32 0, i32 0
  %113 = load i64, ptr %112, align 8, !tbaa !34
  %114 = inttoptr i64 %113 to ptr
  store ptr %114, ptr %8, align 8, !tbaa !28
  %115 = load ptr, ptr %8, align 8, !tbaa !28
  %116 = getelementptr inbounds nuw %struct.GChead, ptr %115, i32 0, i32 0
  %117 = getelementptr inbounds nuw %struct.GCRef, ptr %116, i32 0, i32 0
  %118 = load i64, ptr %117, align 8, !tbaa !30
  %119 = load ptr, ptr %7, align 8, !tbaa !28
  %120 = getelementptr inbounds nuw %struct.GChead, ptr %119, i32 0, i32 0
  %121 = getelementptr inbounds nuw %struct.GCRef, ptr %120, i32 0, i32 0
  store i64 %118, ptr %121, align 8, !tbaa !30
  %122 = load ptr, ptr %7, align 8, !tbaa !28
  %123 = ptrtoint ptr %122 to i64
  %124 = load ptr, ptr %8, align 8, !tbaa !28
  %125 = getelementptr inbounds nuw %struct.GChead, ptr %124, i32 0, i32 0
  %126 = getelementptr inbounds nuw %struct.GCRef, ptr %125, i32 0, i32 0
  store i64 %123, ptr %126, align 8, !tbaa !30
  %127 = load ptr, ptr %7, align 8, !tbaa !28
  %128 = ptrtoint ptr %127 to i64
  %129 = load ptr, ptr %3, align 8, !tbaa !4
  %130 = getelementptr inbounds nuw %struct.global_State, ptr %129, i32 0, i32 2
  %131 = getelementptr inbounds nuw %struct.GCState, ptr %130, i32 0, i32 12
  %132 = getelementptr inbounds nuw %struct.GCRef, ptr %131, i32 0, i32 0
  store i64 %128, ptr %132, align 8, !tbaa !34
  call void @llvm.lifetime.end.p0(i64 8, ptr %8) #7
  br label %145

133:                                              ; preds = %84
  %134 = load ptr, ptr %7, align 8, !tbaa !28
  %135 = ptrtoint ptr %134 to i64
  %136 = load ptr, ptr %7, align 8, !tbaa !28
  %137 = getelementptr inbounds nuw %struct.GChead, ptr %136, i32 0, i32 0
  %138 = getelementptr inbounds nuw %struct.GCRef, ptr %137, i32 0, i32 0
  store i64 %135, ptr %138, align 8, !tbaa !30
  %139 = load ptr, ptr %7, align 8, !tbaa !28
  %140 = ptrtoint ptr %139 to i64
  %141 = load ptr, ptr %3, align 8, !tbaa !4
  %142 = getelementptr inbounds nuw %struct.global_State, ptr %141, i32 0, i32 2
  %143 = getelementptr inbounds nuw %struct.GCState, ptr %142, i32 0, i32 12
  %144 = getelementptr inbounds nuw %struct.GCRef, ptr %143, i32 0, i32 0
  store i64 %140, ptr %144, align 8, !tbaa !34
  br label %145

145:                                              ; preds = %133, %108
  br label %146

146:                                              ; preds = %145, %75
  br label %147

147:                                              ; preds = %146, %38
  br label %15, !llvm.loop !35

148:                                              ; preds = %15
  %149 = load i64, ptr %5, align 8, !tbaa !11
  call void @llvm.lifetime.end.p0(i64 8, ptr %7) #7
  call void @llvm.lifetime.end.p0(i64 8, ptr %6) #7
  call void @llvm.lifetime.end.p0(i64 8, ptr %5) #7
  ret i64 %149
}