; Function Attrs: nounwind uwtable
define hidden i64 @lj_gc_separateudata(ptr noundef captures(none) %0, i32 noundef %1) local_unnamed_addr #0 {
  %3 = getelementptr inbounds nuw i8, ptr %0, i64 192
  %4 = load i64, ptr %3, align 8, !tbaa !4
  %5 = inttoptr i64 %4 to ptr
  %6 = load i64, ptr %5, align 8, !tbaa !22
  %.not39 = icmp eq i64 %6, 0
  br i1 %.not39, label %._crit_edge, label %.lr.ph

.lr.ph:                                           ; preds = %2
  %7 = getelementptr inbounds nuw i8, ptr %0, i64 440
  %8 = getelementptr inbounds nuw i8, ptr %0, i64 80
  br label %9

9:                                                ; preds = %.lr.ph, %47
  %10 = phi i64 [ %6, %.lr.ph ], [ %48, %47 ]
  %.041 = phi i64 [ 0, %.lr.ph ], [ %.1, %47 ]
  %.03040 = phi ptr [ %5, %.lr.ph ], [ %.131, %47 ]
  %11 = inttoptr i64 %10 to ptr
  %12 = getelementptr inbounds nuw i8, ptr %11, i64 8
  %13 = load i8, ptr %12, align 8, !tbaa !23
  %14 = zext i8 %13 to i32
  %15 = and i32 %14, 3
  %16 = or i32 %15, %1
  %or.cond.not = icmp ne i32 %16, 0
  %17 = and i32 %14, 8
  %.not35 = icmp eq i32 %17, 0
  %or.cond = and i1 %.not35, %or.cond.not
  br i1 %or.cond, label %18, label %47

18:                                               ; preds = %9
  %19 = getelementptr inbounds nuw i8, ptr %11, i64 32
  %20 = load i64, ptr %19, align 8, !tbaa !23
  %21 = inttoptr i64 %20 to ptr
  %22 = icmp eq i64 %20, 0
  br i1 %22, label %31, label %23

23:                                               ; preds = %18
  %24 = getelementptr inbounds nuw i8, ptr %21, i64 10
  %25 = load i8, ptr %24, align 2, !tbaa !24
  %26 = and i8 %25, 4
  %.not36 = icmp eq i8 %26, 0
  br i1 %.not36, label %27, label %31

27:                                               ; preds = %23
  %28 = load i64, ptr %7, align 8, !tbaa !22
  %29 = inttoptr i64 %28 to ptr
  %30 = tail call ptr @lj_meta_cache(ptr noundef nonnull %21, i32 noundef 2, ptr noundef %29) #8
  %.not37 = icmp eq ptr %30, null
  %.pre = load i8, ptr %12, align 8, !tbaa !23
  br i1 %.not37, label %31, label %34

31:                                               ; preds = %23, %18, %27
  %32 = phi i8 [ %13, %23 ], [ %13, %18 ], [ %.pre, %27 ]
  %33 = or i8 %32, 8
  store i8 %33, ptr %12, align 8, !tbaa !23
  br label %47

34:                                               ; preds = %27
  %35 = getelementptr inbounds nuw i8, ptr %11, i64 24
  %36 = load i32, ptr %35, align 8, !tbaa !23
  %37 = zext i32 %36 to i64
  %38 = add i64 %.041, 48
  %39 = add i64 %38, %37
  %40 = or i8 %.pre, 8
  store i8 %40, ptr %12, align 8, !tbaa !23
  %41 = load i64, ptr %11, align 8, !tbaa !26
  store i64 %41, ptr %.03040, align 8, !tbaa !26
  %42 = load i64, ptr %8, align 8, !tbaa !27
  %.not38 = icmp eq i64 %42, 0
  br i1 %.not38, label %46, label %43

43:                                               ; preds = %34
  %44 = inttoptr i64 %42 to ptr
  %45 = load i64, ptr %44, align 8, !tbaa !23
  store i64 %45, ptr %11, align 8, !tbaa !23
  store i64 %10, ptr %44, align 8, !tbaa !23
  store i64 %10, ptr %8, align 8, !tbaa !27
  br label %47

46:                                               ; preds = %34
  store i64 %10, ptr %11, align 8, !tbaa !23
  store i64 %10, ptr %8, align 8, !tbaa !27
  br label %47

47:                                               ; preds = %9, %31, %46, %43
  %.131 = phi ptr [ %11, %31 ], [ %.03040, %43 ], [ %.03040, %46 ], [ %11, %9 ]
  %.1 = phi i64 [ %.041, %31 ], [ %39, %43 ], [ %39, %46 ], [ %.041, %9 ]
  %48 = load i64, ptr %.131, align 8, !tbaa !22
  %.not = icmp eq i64 %48, 0
  br i1 %.not, label %._crit_edge, label %9, !llvm.loop !28

._crit_edge:                                      ; preds = %47, %2
  %.0.lcssa = phi i64 [ 0, %2 ], [ %.1, %47 ]
  ret i64 %.0.lcssa
}